; Function Attrs: nounwind uwtable
define ptr @OSSL_STORE_INFO_get1_PARAMS(ptr noundef readonly captures(none) %0) local_unnamed_addr #0 {
  %2 = load i32, ptr %0, align 8, !tbaa !68
  %3 = icmp eq i32 %2, 2
  br i1 %3, label %4, label %9

4:                                                ; preds = %1
  %5 = getelementptr inbounds nuw i8, ptr %0, i64 8
  %6 = load ptr, ptr %5, align 8, !tbaa !8
  %7 = tail call i32 @EVP_PKEY_up_ref(ptr noundef %6) #9
  %8 = load ptr, ptr %5, align 8, !tbaa !8
  br label %10

9:                                                ; preds = %1
  tail call void @ERR_new() #9
  tail call void @ERR_set_debug(ptr noundef nonnull @.str.2, i32 noundef 748, ptr noundef nonnull @__func__.OSSL_STORE_INFO_get1_PARAMS) #9
  tail call void (i32, i32, ptr, ...) @ERR_set_error(i32 noundef 44, i32 noundef 104, ptr noundef null) #9
  br label %10

10:                                               ; preds = %9, %4
  %.0 = phi ptr [ %8, %4 ], [ null, %9 ]
  ret ptr %.0
}